target datalayout = "e-m:e-p270:32:32-p271:32:32-p272:64:64-i64:64-i128:128-f80:128-n8:16:32:64-S128"
target triple = "x86_64-pc-linux-gnu"

; Function Attrs: mustprogress nounwind uwtable
define linkonce_odr noundef i32 @_ZN6google8protobuf4Bits18Log2FloorNonZero64Em(i64 noundef %0) #5 comdat align 2 {
  %2 = alloca i64, align 8
  store i64 %0, ptr %2, align 8
  %3 = load i64, ptr %2, align 8
  %4 = call i64 @llvm.ctlz.i64(i64 %3, i1 true)
  %5 = trunc i64 %4 to i32
  %6 = xor i32 63, %5
  ret i32 %6
}

; Function Attrs: mustprogress uwtable
define linkonce_odr noundef i64 @_ZN6google8protobuf2io17CodedOutputStream12VarintSize64Em(i64 noundef %0) #4 comdat align 2 {
  %2 = alloca i64, align 8
  %3 = alloca i32, align 4
  store i64 %0, ptr %2, align 8
  %4 = load i64, ptr %2, align 8
  %5 = or i64 %4, 1
  %6 = call noundef i32 @_ZN6google8protobuf4Bits18Log2FloorNonZero64Em(i64 noundef %5)
  store i32 %6, ptr %3, align 4
  %7 = load i32, ptr %3, align 4
  %8 = mul i32 %7, 9
  %9 = add i32 %8, 73
  %10 = udiv i32 %9, 64
  %11 = zext i32 %10 to i64
  ret i64 %11
}

; Function Attrs: mustprogress uwtable
define linkonce_odr noundef i64 @_ZN6google8protobuf8internal14WireFormatLite10UInt64SizeEm(i64 noundef %0) #4 comdat align 2 {
  %2 = alloca i64, align 8
  store i64 %0, ptr %2, align 8
  %3 = load i64, ptr %2, align 8
  %4 = call noundef i64 @_ZN6google8protobuf2io17CodedOutputStream12VarintSize64Em(i64 noundef %3)
  ret i64 %4
}

; Function Attrs: mustprogress uwtable
define noundef i64 @_ZN6google8protobuf8internal14WireFormatLite10UInt64SizeERKNS0_13RepeatedFieldImEE(ptr noundef nonnull align 8 dereferenceable(16) %0) #4 align 2 {
  %2 = alloca ptr, align 8
  %3 = alloca i64, align 8
  %4 = alloca i32, align 4
  %5 = alloca i32, align 4
  store ptr %0, ptr %2, align 8
  store i64 0, ptr %3, align 8
  %6 = load ptr, ptr %2, align 8
  %7 = call noundef i32 @_ZNK6google8protobuf13RepeatedFieldImE4sizeEv(ptr noundef nonnull align 8 dereferenceable(16) %6)
  store i32 %7, ptr %4, align 4
  store i32 0, ptr %5, align 4
  br label %8

8:                                                ; preds = %20, %1
  %9 = load i32, ptr %5, align 4
  %10 = load i32, ptr %4, align 4
  %11 = icmp slt i32 %9, %10
  br i1 %11, label %12, label %23

12:                                               ; preds = %8
  %13 = load ptr, ptr %2, align 8
  %14 = load i32, ptr %5, align 4
  %15 = call noundef nonnull align 8 dereferenceable(8) ptr @_ZNK6google8protobuf13RepeatedFieldImE3GetEi(ptr noundef nonnull align 8 dereferenceable(16) %13, i32 noundef %14)
  %16 = load i64, ptr %15, align 8
  %17 = call noundef i64 @_ZN6google8protobuf8internal14WireFormatLite10UInt64SizeEm(i64 noundef %16)
  %18 = load i64, ptr %3, align 8
  %19 = add i64 %18, %17
  store i64 %19, ptr %3, align 8
  br label %20

20:                                               ; preds = %12
  %21 = load i32, ptr %5, align 4
  %22 = add nsw i32 %21, 1
  store i32 %22, ptr %5, align 4
  br label %8, !llvm.loop !12

23:                                               ; preds = %8
  %24 = load i64, ptr %3, align 8
  ret i64 %24
}