; Function Attrs: mustprogress uwtable
define noundef i64 @_ZN6google8protobuf8internal14WireFormatLite10UInt64SizeERKNS0_13RepeatedFieldImEE(ptr noundef nonnull align 8 dereferenceable(16) %0) local_unnamed_addr #3 align 2 {
  %2 = tail call noundef i32 @_ZNK6google8protobuf13RepeatedFieldImE4sizeEv(ptr noundef nonnull align 8 dereferenceable(16) %0)
  %3 = icmp sgt i32 %2, 0
  br i1 %3, label %.lr.ph, label %._crit_edge

.lr.ph:                                           ; preds = %1, %.lr.ph
  %.09 = phi i32 [ %13, %.lr.ph ], [ 0, %1 ]
  %.078 = phi i64 [ %12, %.lr.ph ], [ 0, %1 ]
  %4 = tail call noundef nonnull align 8 dereferenceable(8) ptr @_ZNK6google8protobuf13RepeatedFieldImE3GetEi(ptr noundef nonnull align 8 dereferenceable(16) %0, i32 noundef %.09)
  %5 = load i64, ptr %4, align 8
  %6 = or i64 %5, 1
  %7 = tail call range(i64 0, 65) i64 @llvm.ctlz.i64(i64 %6, i1 true)
  %8 = xor i64 %7, 63
  %9 = mul nuw nsw i64 %8, 9
  %10 = add nuw nsw i64 %9, 73
  %11 = lshr i64 %10, 6
  %12 = add i64 %11, %.078
  %13 = add nuw nsw i32 %.09, 1
  %exitcond.not = icmp eq i32 %13, %2
  br i1 %exitcond.not, label %._crit_edge, label %.lr.ph, !llvm.loop !14

._crit_edge:                                      ; preds = %.lr.ph, %1
  %.07.lcssa = phi i64 [ 0, %1 ], [ %12, %.lr.ph ]
  ret i64 %.07.lcssa
}